target datalayout = "e-m:e-p270:32:32-p271:32:32-p272:64:64-i64:64-i128:128-f80:128-n8:16:32:64-S128"
target triple = "x86_64-pc-linux-gnu"

%struct._sapi_post_entry = type { ptr, i32, ptr, ptr }

; Function Attrs: nounwind uwtable
define dso_local i32 @sapi_register_post_entries(ptr noundef %0) #0 {
  %2 = alloca i32, align 4
  %3 = alloca ptr, align 8
  %4 = alloca ptr, align 8
  %5 = alloca i32, align 4
  store ptr %0, ptr %3, align 8, !tbaa !90
  call void @llvm.lifetime.start.p0(i64 8, ptr %4) #15
  %6 = load ptr, ptr %3, align 8, !tbaa !90
  store ptr %6, ptr %4, align 8, !tbaa !90
  br label %7

7:                                                ; preds = %17, %1
  %8 = load ptr, ptr %4, align 8, !tbaa !90
  %9 = getelementptr inbounds nuw %struct._sapi_post_entry, ptr %8, i32 0, i32 0
  %10 = load ptr, ptr %9, align 8, !tbaa !163
  %11 = icmp ne ptr %10, null
  br i1 %11, label %12, label %20

12:                                               ; preds = %7
  %13 = load ptr, ptr %4, align 8, !tbaa !90
  %14 = call i32 @sapi_register_post_entry(ptr noundef %13)
  %15 = icmp eq i32 %14, -1
  br i1 %15, label %16, label %17

16:                                               ; preds = %12
  store i32 -1, ptr %2, align 4
  store i32 1, ptr %5, align 4
  br label %21

17:                                               ; preds = %12
  %18 = load ptr, ptr %4, align 8, !tbaa !90
  %19 = getelementptr inbounds nuw %struct._sapi_post_entry, ptr %18, i32 1
  store ptr %19, ptr %4, align 8, !tbaa !90
  br label %7

20:                                               ; preds = %7
  store i32 0, ptr %2, align 4
  store i32 1, ptr %5, align 4
  br label %21

21:                                               ; preds = %20, %16
  call void @llvm.lifetime.end.p0(i64 8, ptr %4) #15
  %22 = load i32, ptr %2, align 4
  ret i32 %22
}